; Function Attrs: mustprogress nounwind uwtable
define dso_local noundef zeroext i1 @_ZN4llvm8LLParser24parseOptionalUnnamedAddrERNS_11GlobalValue11UnnamedAddrE(ptr noundef nonnull align 8 dereferenceable(1768) %0, ptr nocapture noundef nonnull writeonly align 4 dereferenceable(4) %1) local_unnamed_addr #0 align 2 {
  %3 = getelementptr inbounds i8, ptr %0, i64 232
  %4 = load i32, ptr %3, align 8
  switch i32 %4, label %_ZN4llvm8LLParser12EatIfPresentENS_5lltok4KindE.exit5 [
    i32 42, label %_ZN4llvm8LLParser12EatIfPresentENS_5lltok4KindE.exit5.sink.split
    i32 43, label %5
  ]

5:                                                ; preds = %2
  br label %_ZN4llvm8LLParser12EatIfPresentENS_5lltok4KindE.exit5.sink.split

_ZN4llvm8LLParser12EatIfPresentENS_5lltok4KindE.exit5.sink.split: ; preds = %2, %5
  %.sink.ph = phi i32 [ 1, %5 ], [ 2, %2 ]
  %6 = getelementptr inbounds nuw i8, ptr %0, i64 176
  %7 = tail call noundef i32 @_ZN4llvm7LLLexer8LexTokenEv(ptr noundef nonnull align 8 dereferenceable(161) %6) #25
  store i32 %7, ptr %3, align 8
  br label %_ZN4llvm8LLParser12EatIfPresentENS_5lltok4KindE.exit5

_ZN4llvm8LLParser12EatIfPresentENS_5lltok4KindE.exit5: ; preds = %_ZN4llvm8LLParser12EatIfPresentENS_5lltok4KindE.exit5.sink.split, %2
  %.sink = phi i32 [ 0, %2 ], [ %.sink.ph, %_ZN4llvm8LLParser12EatIfPresentENS_5lltok4KindE.exit5.sink.split ]
  store i32 %.sink, ptr %1, align 4
  ret i1 false
}